target datalayout = "e-m:e-p270:32:32-p271:32:32-p272:64:64-i64:64-i128:128-f80:128-n8:16:32:64-S128"
target triple = "x86_64-pc-linux-gnu"

%struct.camelsrt_t = type { ptr, [10 x i32], [10 x %struct._timestat_t], [10 x [500000 x %struct.nstime_t]] }
%struct._timestat_t = type { i32, i32, i32, %struct.nstime_t, %struct.nstime_t, %struct.nstime_t, double }
%struct.nstime_t = type { i64, i32 }
%struct.camelsrt_info_t = type { i32, ptr, i8, [10 x i8], [10 x %struct.camelsrt_msginfo_t] }
%struct.camelsrt_msginfo_t = type { i8, i8, i8, %struct.nstime_t, %struct.nstime_t }

; Function Attrs: null_pointer_is_valid sspstrong uwtable
define internal i32 @camelsrt_packet(ptr noundef %0, ptr noundef %1, ptr noundef %2, ptr noundef %3, i32 noundef %4) #0 {
  %6 = alloca ptr, align 8
  %7 = alloca ptr, align 8
  %8 = alloca ptr, align 8
  %9 = alloca ptr, align 8
  %10 = alloca i32, align 4
  %11 = alloca ptr, align 8
  %12 = alloca ptr, align 8
  %13 = alloca i32, align 4
  store ptr %0, ptr %6, align 8
  store ptr %1, ptr %7, align 8
  store ptr %2, ptr %8, align 8
  store ptr %3, ptr %9, align 8
  store i32 %4, ptr %10, align 4
  call void @llvm.lifetime.start.p0(i64 8, ptr %11) #13
  %14 = load ptr, ptr %6, align 8
  store ptr %14, ptr %11, align 8
  call void @llvm.lifetime.start.p0(i64 8, ptr %12) #13
  %15 = load ptr, ptr %9, align 8
  store ptr %15, ptr %12, align 8
  call void @llvm.lifetime.start.p0(i64 4, ptr %13) #13
  store i32 0, ptr %13, align 4
  br label %16

16:                                               ; preds = %98, %5
  %17 = load i32, ptr %13, align 4
  %18 = icmp slt i32 %17, 10
  br i1 %18, label %19, label %101

19:                                               ; preds = %16
  %20 = load ptr, ptr %12, align 8
  %21 = getelementptr inbounds nuw %struct.camelsrt_info_t, ptr %20, i32 0, i32 3
  %22 = load i32, ptr %13, align 4
  %23 = sext i32 %22 to i64
  %24 = getelementptr [10 x i8], ptr %21, i64 0, i64 %23
  %25 = load i8, ptr %24, align 1
  %26 = zext i8 %25 to i32
  %27 = icmp ne i32 %26, 0
  br i1 %27, label %28, label %97

28:                                               ; preds = %19
  %29 = load ptr, ptr %12, align 8
  %30 = getelementptr inbounds nuw %struct.camelsrt_info_t, ptr %29, i32 0, i32 4
  %31 = load i32, ptr %13, align 4
  %32 = sext i32 %31 to i64
  %33 = getelementptr [10 x %struct.camelsrt_msginfo_t], ptr %30, i64 0, i64 %32
  %34 = getelementptr inbounds nuw %struct.camelsrt_msginfo_t, ptr %33, i32 0, i32 2
  %35 = load i8, ptr %34, align 2, !range !7, !noundef !8
  %36 = trunc i8 %35 to i1
  br i1 %36, label %37, label %97

37:                                               ; preds = %28
  %38 = load ptr, ptr %12, align 8
  %39 = getelementptr inbounds nuw %struct.camelsrt_info_t, ptr %38, i32 0, i32 4
  %40 = load i32, ptr %13, align 4
  %41 = sext i32 %40 to i64
  %42 = getelementptr [10 x %struct.camelsrt_msginfo_t], ptr %39, i64 0, i64 %41
  %43 = getelementptr inbounds nuw %struct.camelsrt_msginfo_t, ptr %42, i32 0, i32 0
  %44 = load i8, ptr %43, align 8, !range !7, !noundef !8
  %45 = trunc i8 %44 to i1
  br i1 %45, label %46, label %97

46:                                               ; preds = %37
  %47 = load ptr, ptr %12, align 8
  %48 = getelementptr inbounds nuw %struct.camelsrt_info_t, ptr %47, i32 0, i32 4
  %49 = load i32, ptr %13, align 4
  %50 = sext i32 %49 to i64
  %51 = getelementptr [10 x %struct.camelsrt_msginfo_t], ptr %48, i64 0, i64 %50
  %52 = getelementptr inbounds nuw %struct.camelsrt_msginfo_t, ptr %51, i32 0, i32 1
  %53 = load i8, ptr %52, align 1, !range !7, !noundef !8
  %54 = trunc i8 %53 to i1
  br i1 %54, label %97, label %55

55:                                               ; preds = %46
  %56 = load ptr, ptr %11, align 8
  %57 = getelementptr inbounds nuw %struct.camelsrt_t, ptr %56, i32 0, i32 2
  %58 = load i32, ptr %13, align 4
  %59 = sext i32 %58 to i64
  %60 = getelementptr [10 x %struct._timestat_t], ptr %57, i64 0, i64 %59
  %61 = load ptr, ptr %12, align 8
  %62 = getelementptr inbounds nuw %struct.camelsrt_info_t, ptr %61, i32 0, i32 4
  %63 = load i32, ptr %13, align 4
  %64 = sext i32 %63 to i64
  %65 = getelementptr [10 x %struct.camelsrt_msginfo_t], ptr %62, i64 0, i64 %64
  %66 = getelementptr inbounds nuw %struct.camelsrt_msginfo_t, ptr %65, i32 0, i32 4
  %67 = load ptr, ptr %7, align 8
  call void @time_stat_update(ptr noundef %60, ptr noundef %66, ptr noundef %67)
  %68 = load ptr, ptr %11, align 8
  %69 = getelementptr inbounds nuw %struct.camelsrt_t, ptr %68, i32 0, i32 1
  %70 = load i32, ptr %13, align 4
  %71 = sext i32 %70 to i64
  %72 = getelementptr [10 x i32], ptr %69, i64 0, i64 %71
  %73 = load i32, ptr %72, align 4
  %74 = icmp ult i32 %73, 500000
  br i1 %74, label %75, label %96

75:                                               ; preds = %55
  %76 = load ptr, ptr %11, align 8
  %77 = getelementptr inbounds nuw %struct.camelsrt_t, ptr %76, i32 0, i32 3
  %78 = load i32, ptr %13, align 4
  %79 = sext i32 %78 to i64
  %80 = getelementptr [10 x [500000 x %struct.nstime_t]], ptr %77, i64 0, i64 %79
  %81 = load ptr, ptr %11, align 8
  %82 = getelementptr inbounds nuw %struct.camelsrt_t, ptr %81, i32 0, i32 1
  %83 = load i32, ptr %13, align 4
  %84 = sext i32 %83 to i64
  %85 = getelementptr [10 x i32], ptr %82, i64 0, i64 %84
  %86 = load i32, ptr %85, align 4
  %87 = add i32 %86, 1
  store i32 %87, ptr %85, align 4
  %88 = zext i32 %86 to i64
  %89 = getelementptr [500000 x %struct.nstime_t], ptr %80, i64 0, i64 %88
  %90 = load ptr, ptr %12, align 8
  %91 = getelementptr inbounds nuw %struct.camelsrt_info_t, ptr %90, i32 0, i32 4
  %92 = load i32, ptr %13, align 4
  %93 = sext i32 %92 to i64
  %94 = getelementptr [10 x %struct.camelsrt_msginfo_t], ptr %91, i64 0, i64 %93
  %95 = getelementptr inbounds nuw %struct.camelsrt_msginfo_t, ptr %94, i32 0, i32 4
  call void @llvm.memcpy.p0.p0.i64(ptr align 8 %89, ptr align 8 %95, i64 16, i1 false)
  br label %96

96:                                               ; preds = %75, %55
  br label %97

97:                                               ; preds = %96, %46, %37, %28, %19
  br label %98

98:                                               ; preds = %97
  %99 = load i32, ptr %13, align 4
  %100 = add i32 %99, 1
  store i32 %100, ptr %13, align 4
  br label %16, !llvm.loop !9

101:                                              ; preds = %16
  call void @llvm.lifetime.end.p0(i64 4, ptr %13) #13
  call void @llvm.lifetime.end.p0(i64 8, ptr %12) #13
  call void @llvm.lifetime.end.p0(i64 8, ptr %11) #13
  ret i32 1
}