; Function Attrs: null_pointer_is_valid sspstrong uwtable
define internal noundef i32 @camelsrt_packet(ptr noundef %0, ptr noundef %1, ptr readnone captures(none) %2, ptr noundef %3, i32 %4) #0 {
  %6 = getelementptr inbounds nuw i8, ptr %3, i64 17
  %7 = getelementptr inbounds nuw i8, ptr %3, i64 32
  %8 = getelementptr inbounds nuw i8, ptr %0, i64 48
  %9 = getelementptr inbounds nuw i8, ptr %0, i64 8
  %10 = getelementptr inbounds nuw i8, ptr %0, i64 768
  br label %11

11:                                               ; preds = %5, %36
  %indvars.iv = phi i64 [ 0, %5 ], [ %indvars.iv.next, %36 ]
  %12 = getelementptr [10 x i8], ptr %6, i64 0, i64 %indvars.iv
  %13 = load i8, ptr %12, align 1
  %.not = icmp eq i8 %13, 0
  br i1 %.not, label %36, label %14

14:                                               ; preds = %11
  %15 = getelementptr [10 x %struct.camelsrt_msginfo_t], ptr %7, i64 0, i64 %indvars.iv
  %16 = getelementptr inbounds nuw i8, ptr %15, i64 2
  %17 = load i8, ptr %16, align 2, !range !7, !noundef !8
  %18 = trunc nuw i8 %17 to i1
  br i1 %18, label %19, label %36

19:                                               ; preds = %14
  %20 = load i8, ptr %15, align 8, !range !7, !noundef !8
  %21 = trunc nuw i8 %20 to i1
  br i1 %21, label %22, label %36

22:                                               ; preds = %19
  %23 = getelementptr inbounds nuw i8, ptr %15, i64 1
  %24 = load i8, ptr %23, align 1, !range !7, !noundef !8
  %25 = trunc nuw i8 %24 to i1
  br i1 %25, label %36, label %26

26:                                               ; preds = %22
  %27 = getelementptr [10 x %struct._timestat_t], ptr %8, i64 0, i64 %indvars.iv
  %28 = getelementptr inbounds nuw i8, ptr %15, i64 24
  tail call void @time_stat_update(ptr noundef %27, ptr noundef nonnull %28, ptr noundef %1)
  %29 = getelementptr [10 x i32], ptr %9, i64 0, i64 %indvars.iv
  %30 = load i32, ptr %29, align 4
  %31 = icmp ult i32 %30, 500000
  br i1 %31, label %32, label %36

32:                                               ; preds = %26
  %33 = add nuw nsw i32 %30, 1
  store i32 %33, ptr %29, align 4
  %34 = zext nneg i32 %30 to i64
  %35 = getelementptr [10 x [500000 x %struct.nstime_t]], ptr %10, i64 0, i64 %indvars.iv, i64 %34
  tail call void @llvm.memcpy.p0.p0.i64(ptr noundef align 8 dereferenceable(16) %35, ptr noundef nonnull align 8 dereferenceable(16) %28, i64 16, i1 false)
  br label %36

36:                                               ; preds = %11, %14, %19, %22, %32, %26
  %indvars.iv.next = add nuw nsw i64 %indvars.iv, 1
  %exitcond.not = icmp eq i64 %indvars.iv.next, 10
  br i1 %exitcond.not, label %37, label %11, !llvm.loop !9

37:                                               ; preds = %36
  ret i32 1
}